; Function Attrs: mustprogress nounwind uwtable
define void @_ZN24dtObstacleAvoidanceQueryD2Ev(ptr noundef nonnull readonly align 8 captures(none) dereferenceable(76) %0) unnamed_addr #3 align 2 personality ptr @__gxx_personality_v0 {
  %2 = getelementptr inbounds nuw i8, ptr %0, i64 48
  %3 = load ptr, ptr %2, align 8
  invoke void @_Z6dtFreePv(ptr noundef %3)
          to label %4 unwind label %8

4:                                                ; preds = %1
  %5 = getelementptr inbounds nuw i8, ptr %0, i64 64
  %6 = load ptr, ptr %5, align 8
  invoke void @_Z6dtFreePv(ptr noundef %6)
          to label %7 unwind label %8

7:                                                ; preds = %4
  ret void

8:                                                ; preds = %4, %1
  %9 = landingpad { ptr, i32 }
          catch ptr null
  %10 = extractvalue { ptr, i32 } %9, 0
  tail call void @__clang_call_terminate(ptr %10) #14
  unreachable
}